; Function Attrs: mustprogress nounwind uwtable
define internal void @_ZNK12_GLOBAL__N_112ExprArgument24writeASTVisitorTraversalERN4llvm11raw_ostreamE(ptr noundef nonnull align 8 dereferenceable(128) %0, ptr noundef nonnull align 8 dereferenceable(48) %1) unnamed_addr #0 align 2 {
  %3 = getelementptr inbounds nuw i8, ptr %1, i64 24
  %4 = load ptr, ptr %3, align 8
  %5 = getelementptr inbounds nuw i8, ptr %1, i64 32
  %6 = load ptr, ptr %5, align 8
  %7 = ptrtoint ptr %4 to i64
  %8 = ptrtoint ptr %6 to i64
  %9 = sub i64 %7, %8
  %10 = icmp ult i64 %9, 7
  br i1 %10, label %11, label %13

11:                                               ; preds = %2
  %12 = tail call noundef nonnull align 8 dereferenceable(48) ptr @_ZN4llvm11raw_ostream5writeEPKcm(ptr noundef nonnull align 8 dereferenceable(48) %1, ptr noundef nonnull @.str.704, i64 noundef 7) #22
  %.phi.trans.insert = getelementptr inbounds nuw i8, ptr %12, i64 32
  %.pre = load ptr, ptr %.phi.trans.insert, align 8
  br label %_ZN4llvm11raw_ostreamlsEPKc.exit

13:                                               ; preds = %2
  tail call void @llvm.memcpy.p0.p0.i64(ptr noundef nonnull align 1 dereferenceable(7) %6, ptr noundef nonnull align 1 dereferenceable(7) @.str.704, i64 7, i1 false)
  %14 = load ptr, ptr %5, align 8
  %15 = getelementptr inbounds i8, ptr %14, i64 7
  store ptr %15, ptr %5, align 8
  br label %_ZN4llvm11raw_ostreamlsEPKc.exit

_ZN4llvm11raw_ostreamlsEPKc.exit:                 ; preds = %11, %13
  %16 = phi ptr [ %.pre, %11 ], [ %15, %13 ]
  %.0.i.i = phi ptr [ %12, %11 ], [ %1, %13 ]
  %17 = getelementptr inbounds nuw i8, ptr %.0.i.i, i64 24
  %18 = load ptr, ptr %17, align 8
  %19 = ptrtoint ptr %18 to i64
  %20 = ptrtoint ptr %16 to i64
  %21 = sub i64 %19, %20
  %22 = icmp ult i64 %21, 32
  br i1 %22, label %23, label %25

23:                                               ; preds = %_ZN4llvm11raw_ostreamlsEPKc.exit
  %24 = tail call noundef nonnull align 8 dereferenceable(48) ptr @_ZN4llvm11raw_ostream5writeEPKcm(ptr noundef nonnull align 8 dereferenceable(48) %.0.i.i, ptr noundef nonnull @.str.705, i64 noundef 32) #22
  br label %_ZN4llvm11raw_ostreamlsEPKc.exit5

25:                                               ; preds = %_ZN4llvm11raw_ostreamlsEPKc.exit
  %26 = getelementptr inbounds nuw i8, ptr %.0.i.i, i64 32
  tail call void @llvm.memcpy.p0.p0.i64(ptr noundef nonnull align 1 dereferenceable(32) %16, ptr noundef nonnull align 1 dereferenceable(32) @.str.705, i64 32, i1 false)
  %27 = load ptr, ptr %26, align 8
  %28 = getelementptr inbounds i8, ptr %27, i64 32
  store ptr %28, ptr %26, align 8
  br label %_ZN4llvm11raw_ostreamlsEPKc.exit5

_ZN4llvm11raw_ostreamlsEPKc.exit5:                ; preds = %23, %25
  %.0.i.i4 = phi ptr [ %24, %23 ], [ %.0.i.i, %25 ]
  %29 = getelementptr inbounds nuw i8, ptr %0, i64 40
  %30 = tail call noundef ptr @_ZNKSt7__cxx1112basic_stringIcSt11char_traitsIcESaIcEE4dataEv(ptr noundef nonnull align 8 dereferenceable(32) %29) #22
  %31 = tail call noundef i64 @_ZNKSt7__cxx1112basic_stringIcSt11char_traitsIcESaIcEE6lengthEv(ptr noundef nonnull align 8 dereferenceable(32) %29) #22
  %32 = getelementptr inbounds nuw i8, ptr %.0.i.i4, i64 24
  %33 = load ptr, ptr %32, align 8
  %34 = getelementptr inbounds nuw i8, ptr %.0.i.i4, i64 32
  %35 = load ptr, ptr %34, align 8
  %36 = ptrtoint ptr %33 to i64
  %37 = ptrtoint ptr %35 to i64
  %38 = sub i64 %36, %37
  %39 = icmp ugt i64 %31, %38
  br i1 %39, label %40, label %42

40:                                               ; preds = %_ZN4llvm11raw_ostreamlsEPKc.exit5
  %41 = tail call noundef nonnull align 8 dereferenceable(48) ptr @_ZN4llvm11raw_ostream5writeEPKcm(ptr noundef nonnull align 8 dereferenceable(48) %.0.i.i4, ptr noundef %30, i64 noundef %31) #22
  %.phi.trans.insert12 = getelementptr inbounds nuw i8, ptr %41, i64 32
  %.pre13 = load ptr, ptr %.phi.trans.insert12, align 8
  br label %_ZN4llvm11raw_ostreamlsENS_9StringRefE.exit

42:                                               ; preds = %_ZN4llvm11raw_ostreamlsEPKc.exit5
  %.not.i = icmp eq i64 %31, 0
  br i1 %.not.i, label %_ZN4llvm11raw_ostreamlsENS_9StringRefE.exit, label %43

43:                                               ; preds = %42
  tail call void @llvm.memcpy.p0.p0.i64(ptr align 1 %35, ptr align 1 %30, i64 %31, i1 false)
  %44 = load ptr, ptr %34, align 8
  %45 = getelementptr inbounds i8, ptr %44, i64 %31
  store ptr %45, ptr %34, align 8
  br label %_ZN4llvm11raw_ostreamlsENS_9StringRefE.exit

_ZN4llvm11raw_ostreamlsENS_9StringRefE.exit:      ; preds = %40, %42, %43
  %46 = phi ptr [ %.pre13, %40 ], [ %45, %43 ], [ %35, %42 ]
  %.0.i = phi ptr [ %41, %40 ], [ %.0.i.i4, %43 ], [ %.0.i.i4, %42 ]
  %47 = getelementptr inbounds nuw i8, ptr %.0.i, i64 24
  %48 = load ptr, ptr %47, align 8
  %49 = ptrtoint ptr %48 to i64
  %50 = ptrtoint ptr %46 to i64
  %51 = sub i64 %49, %50
  %52 = icmp ult i64 %51, 5
  br i1 %52, label %53, label %55

53:                                               ; preds = %_ZN4llvm11raw_ostreamlsENS_9StringRefE.exit
  %54 = tail call noundef nonnull align 8 dereferenceable(48) ptr @_ZN4llvm11raw_ostream5writeEPKcm(ptr noundef nonnull align 8 dereferenceable(48) %.0.i, ptr noundef nonnull @.str.706, i64 noundef 5) #22
  br label %_ZN4llvm11raw_ostreamlsEPKc.exit8

55:                                               ; preds = %_ZN4llvm11raw_ostreamlsENS_9StringRefE.exit
  %56 = getelementptr inbounds nuw i8, ptr %.0.i, i64 32
  tail call void @llvm.memcpy.p0.p0.i64(ptr noundef nonnull align 1 dereferenceable(5) %46, ptr noundef nonnull align 1 dereferenceable(5) @.str.706, i64 5, i1 false)
  %57 = load ptr, ptr %56, align 8
  %58 = getelementptr inbounds i8, ptr %57, i64 5
  store ptr %58, ptr %56, align 8
  br label %_ZN4llvm11raw_ostreamlsEPKc.exit8

_ZN4llvm11raw_ostreamlsEPKc.exit8:                ; preds = %53, %55
  %59 = load ptr, ptr %3, align 8
  %60 = load ptr, ptr %5, align 8
  %61 = ptrtoint ptr %59 to i64
  %62 = ptrtoint ptr %60 to i64
  %63 = sub i64 %61, %62
  %64 = icmp ult i64 %63, 18
  br i1 %64, label %65, label %67

65:                                               ; preds = %_ZN4llvm11raw_ostreamlsEPKc.exit8
  %66 = tail call noundef nonnull align 8 dereferenceable(48) ptr @_ZN4llvm11raw_ostream5writeEPKcm(ptr noundef nonnull align 8 dereferenceable(48) %1, ptr noundef nonnull @.str.113, i64 noundef 18) #22
  br label %_ZN4llvm11raw_ostreamlsEPKc.exit11

67:                                               ; preds = %_ZN4llvm11raw_ostreamlsEPKc.exit8
  tail call void @llvm.memcpy.p0.p0.i64(ptr noundef nonnull align 1 dereferenceable(18) %60, ptr noundef nonnull align 1 dereferenceable(18) @.str.113, i64 18, i1 false)
  %68 = load ptr, ptr %5, align 8
  %69 = getelementptr inbounds i8, ptr %68, i64 18
  store ptr %69, ptr %5, align 8
  br label %_ZN4llvm11raw_ostreamlsEPKc.exit11

_ZN4llvm11raw_ostreamlsEPKc.exit11:               ; preds = %65, %67
  ret void
}